target datalayout = "e-m:e-p270:32:32-p271:32:32-p272:64:64-i64:64-i128:128-f80:128-n8:16:32:64-S128"
target triple = "x86_64-pc-linux-gnu"

%struct.Abc_Ntk_t_ = type { i32, i32, ptr, ptr, ptr, ptr, ptr, ptr, ptr, ptr, ptr, ptr, ptr, [11 x i32], i32, i32, i32, i32, ptr, i32, ptr, ptr, i32, i32, i32, double, i32, %struct.Vec_Int_t_, ptr, ptr, ptr, ptr, ptr, float, i32, ptr, ptr, ptr, ptr, ptr, ptr, ptr, ptr, ptr, ptr, ptr, ptr, ptr, ptr, ptr, ptr, ptr, ptr, ptr, ptr, ptr, ptr }
%struct.Vec_Int_t_ = type { i32, i32, ptr }
%struct.Abc_Obj_t_ = type { ptr, ptr, i32, i32, %struct.Vec_Int_t_, %struct.Vec_Int_t_, %union.anon, %union.anon.0 }
%union.anon = type { ptr }
%union.anon.0 = type { ptr }
%struct.Vec_Ptr_t_ = type { i32, i32, ptr }
%struct.Vec_Str_t_ = type { i32, i32, ptr }

@.str = private unnamed_addr constant [47 x i8] c"Warning: The network has only constant nodes.\0A\00", align 1

; Function Attrs: inlinehint nounwind uwtable
define internal i32 @Vec_IntSize(ptr noundef %0) #6 {
  %2 = alloca ptr, align 8
  store ptr %0, ptr %2, align 8, !tbaa !28
  %3 = load ptr, ptr %2, align 8, !tbaa !28
  %4 = getelementptr inbounds nuw %struct.Vec_Int_t_, ptr %3, i32 0, i32 1
  %5 = load i32, ptr %4, align 4, !tbaa !67
  ret i32 %5
}

; Function Attrs: inlinehint nounwind uwtable
define internal i32 @Abc_NtkHasMapping(ptr noundef %0) #6 {
  %2 = alloca ptr, align 8
  store ptr %0, ptr %2, align 8, !tbaa !26
  %3 = load ptr, ptr %2, align 8, !tbaa !26
  %4 = getelementptr inbounds nuw %struct.Abc_Ntk_t_, ptr %3, i32 0, i32 1
  %5 = load i32, ptr %4, align 4, !tbaa !63
  %6 = icmp eq i32 %5, 4
  %7 = zext i1 %6 to i32
  ret i32 %7
}

; Function Attrs: inlinehint nounwind uwtable
define internal ptr @Vec_PtrEntry(ptr noundef %0, i32 noundef %1) #6 {
  %3 = alloca ptr, align 8
  %4 = alloca i32, align 4
  store ptr %0, ptr %3, align 8, !tbaa !64
  store i32 %1, ptr %4, align 4, !tbaa !8
  %5 = load ptr, ptr %3, align 8, !tbaa !64
  %6 = getelementptr inbounds nuw %struct.Vec_Ptr_t_, ptr %5, i32 0, i32 2
  %7 = load ptr, ptr %6, align 8, !tbaa !93
  %8 = load i32, ptr %4, align 4, !tbaa !8
  %9 = sext i32 %8 to i64
  %10 = getelementptr inbounds ptr, ptr %7, i64 %9
  %11 = load ptr, ptr %10, align 8, !tbaa !94
  ret ptr %11
}

; Function Attrs: inlinehint nounwind uwtable
define internal void @Vec_StrFree(ptr noundef %0) #6 {
  %2 = alloca ptr, align 8
  store ptr %0, ptr %2, align 8, !tbaa !78
  %3 = load ptr, ptr %2, align 8, !tbaa !78
  %4 = getelementptr inbounds nuw %struct.Vec_Str_t_, ptr %3, i32 0, i32 2
  %5 = load ptr, ptr %4, align 8, !tbaa !83
  %6 = icmp ne ptr %5, null
  br i1 %6, label %7, label %13

7:                                                ; preds = %1
  %8 = load ptr, ptr %2, align 8, !tbaa !78
  %9 = getelementptr inbounds nuw %struct.Vec_Str_t_, ptr %8, i32 0, i32 2
  %10 = load ptr, ptr %9, align 8, !tbaa !83
  call void @free(ptr noundef %10) #10
  %11 = load ptr, ptr %2, align 8, !tbaa !78
  %12 = getelementptr inbounds nuw %struct.Vec_Str_t_, ptr %11, i32 0, i32 2
  store ptr null, ptr %12, align 8, !tbaa !83
  br label %14

13:                                               ; preds = %1
  br label %14

14:                                               ; preds = %13, %7
  %15 = load ptr, ptr %2, align 8, !tbaa !78
  %16 = icmp ne ptr %15, null
  br i1 %16, label %17, label %19

17:                                               ; preds = %14
  %18 = load ptr, ptr %2, align 8, !tbaa !78
  call void @free(ptr noundef %18) #10
  store ptr null, ptr %2, align 8, !tbaa !78
  br label %20

19:                                               ; preds = %14
  br label %20

20:                                               ; preds = %19, %17
  ret void
}

; Function Attrs: inlinehint nounwind uwtable
define internal i32 @Abc_ObjFaninNum(ptr noundef %0) #6 {
  %2 = alloca ptr, align 8
  store ptr %0, ptr %2, align 8, !tbaa !43
  %3 = load ptr, ptr %2, align 8, !tbaa !43
  %4 = getelementptr inbounds nuw %struct.Abc_Obj_t_, ptr %3, i32 0, i32 4
  %5 = getelementptr inbounds nuw %struct.Vec_Int_t_, ptr %4, i32 0, i32 1
  %6 = load i32, ptr %5, align 4, !tbaa !72
  ret i32 %6
}

; Function Attrs: inlinehint nounwind uwtable
define internal ptr @Vec_StrAlloc(i32 noundef %0) #6 {
  %2 = alloca i32, align 4
  %3 = alloca ptr, align 8
  store i32 %0, ptr %2, align 4, !tbaa !8
  call void @llvm.lifetime.start.p0(i64 8, ptr %3) #10
  %4 = call noalias ptr @malloc(i64 noundef 16) #11
  store ptr %4, ptr %3, align 8, !tbaa !78
  %5 = load i32, ptr %2, align 4, !tbaa !8
  %6 = icmp sgt i32 %5, 0
  br i1 %6, label %7, label %11

7:                                                ; preds = %1
  %8 = load i32, ptr %2, align 4, !tbaa !8
  %9 = icmp slt i32 %8, 16
  br i1 %9, label %10, label %11

10:                                               ; preds = %7
  store i32 16, ptr %2, align 4, !tbaa !8
  br label %11

11:                                               ; preds = %10, %7, %1
  %12 = load ptr, ptr %3, align 8, !tbaa !78
  %13 = getelementptr inbounds nuw %struct.Vec_Str_t_, ptr %12, i32 0, i32 1
  store i32 0, ptr %13, align 4, !tbaa !81
  %14 = load i32, ptr %2, align 4, !tbaa !8
  %15 = load ptr, ptr %3, align 8, !tbaa !78
  %16 = getelementptr inbounds nuw %struct.Vec_Str_t_, ptr %15, i32 0, i32 0
  store i32 %14, ptr %16, align 8, !tbaa !85
  %17 = load ptr, ptr %3, align 8, !tbaa !78
  %18 = getelementptr inbounds nuw %struct.Vec_Str_t_, ptr %17, i32 0, i32 0
  %19 = load i32, ptr %18, align 8, !tbaa !85
  %20 = icmp ne i32 %19, 0
  br i1 %20, label %21, label %28

21:                                               ; preds = %11
  %22 = load ptr, ptr %3, align 8, !tbaa !78
  %23 = getelementptr inbounds nuw %struct.Vec_Str_t_, ptr %22, i32 0, i32 0
  %24 = load i32, ptr %23, align 8, !tbaa !85
  %25 = sext i32 %24 to i64
  %26 = mul i64 1, %25
  %27 = call noalias ptr @malloc(i64 noundef %26) #11
  br label %29

28:                                               ; preds = %11
  br label %29

29:                                               ; preds = %28, %21
  %30 = phi ptr [ %27, %21 ], [ null, %28 ]
  %31 = load ptr, ptr %3, align 8, !tbaa !78
  %32 = getelementptr inbounds nuw %struct.Vec_Str_t_, ptr %31, i32 0, i32 2
  store ptr %30, ptr %32, align 8, !tbaa !83
  %33 = load ptr, ptr %3, align 8, !tbaa !78
  call void @llvm.lifetime.end.p0(i64 8, ptr %3) #10
  ret ptr %33
}

; Function Attrs: inlinehint nounwind uwtable
define internal i32 @Abc_ObjIsBarBuf(ptr noundef %0) #6 {
  %2 = alloca ptr, align 8
  store ptr %0, ptr %2, align 8, !tbaa !43
  %3 = load ptr, ptr %2, align 8, !tbaa !43
  %4 = getelementptr inbounds nuw %struct.Abc_Obj_t_, ptr %3, i32 0, i32 0
  %5 = load ptr, ptr %4, align 8, !tbaa !70
  %6 = call i32 @Abc_NtkHasMapping(ptr noundef %5)
  %7 = icmp ne i32 %6, 0
  br i1 %7, label %8, label %22

8:                                                ; preds = %1
  %9 = load ptr, ptr %2, align 8, !tbaa !43
  %10 = call i32 @Abc_ObjIsNode(ptr noundef %9)
  %11 = icmp ne i32 %10, 0
  br i1 %11, label %12, label %22

12:                                               ; preds = %8
  %13 = load ptr, ptr %2, align 8, !tbaa !43
  %14 = getelementptr inbounds nuw %struct.Abc_Obj_t_, ptr %13, i32 0, i32 4
  %15 = call i32 @Vec_IntSize(ptr noundef %14)
  %16 = icmp eq i32 %15, 1
  br i1 %16, label %17, label %22

17:                                               ; preds = %12
  %18 = load ptr, ptr %2, align 8, !tbaa !43
  %19 = getelementptr inbounds nuw %struct.Abc_Obj_t_, ptr %18, i32 0, i32 6
  %20 = load ptr, ptr %19, align 8, !tbaa !12
  %21 = icmp eq ptr %20, null
  br label %22

22:                                               ; preds = %17, %12, %8, %1
  %23 = phi i1 [ false, %12 ], [ false, %8 ], [ false, %1 ], [ %21, %17 ]
  %24 = zext i1 %23 to i32
  ret i32 %24
}

; Function Attrs: inlinehint nounwind uwtable
define internal i32 @Abc_ObjIsNode(ptr noundef %0) #6 {
  %2 = alloca ptr, align 8
  store ptr %0, ptr %2, align 8, !tbaa !43
  %3 = load ptr, ptr %2, align 8, !tbaa !43
  %4 = getelementptr inbounds nuw %struct.Abc_Obj_t_, ptr %3, i32 0, i32 3
  %5 = load i32, ptr %4, align 4
  %6 = and i32 %5, 15
  %7 = icmp eq i32 %6, 7
  %8 = zext i1 %7 to i32
  ret i32 %8
}

; Function Attrs: inlinehint nounwind uwtable
define internal ptr @Abc_NtkObj(ptr noundef %0, i32 noundef %1) #6 {
  %3 = alloca ptr, align 8
  %4 = alloca i32, align 4
  store ptr %0, ptr %3, align 8, !tbaa !26
  store i32 %1, ptr %4, align 4, !tbaa !8
  %5 = load ptr, ptr %3, align 8, !tbaa !26
  %6 = getelementptr inbounds nuw %struct.Abc_Ntk_t_, ptr %5, i32 0, i32 5
  %7 = load ptr, ptr %6, align 8, !tbaa !30
  %8 = load i32, ptr %4, align 4, !tbaa !8
  %9 = call ptr @Vec_PtrEntry(ptr noundef %7, i32 noundef %8)
  ret ptr %9
}

; Function Attrs: inlinehint nounwind uwtable
define internal i32 @Vec_PtrSize(ptr noundef %0) #6 {
  %2 = alloca ptr, align 8
  store ptr %0, ptr %2, align 8, !tbaa !64
  %3 = load ptr, ptr %2, align 8, !tbaa !64
  %4 = getelementptr inbounds nuw %struct.Vec_Ptr_t_, ptr %3, i32 0, i32 1
  %5 = load i32, ptr %4, align 4, !tbaa !65
  ret i32 %5
}

; Function Attrs: nounwind uwtable
define void @Abc_NtkLogicMakeDirectSops(ptr noundef %0) #0 {
  %2 = alloca ptr, align 8
  %3 = alloca ptr, align 8
  %4 = alloca ptr, align 8
  %5 = alloca ptr, align 8
  %6 = alloca ptr, align 8
  %7 = alloca i32, align 4
  %8 = alloca i32, align 4
  %9 = alloca i32, align 4
  %10 = alloca i32, align 4
  store ptr %0, ptr %2, align 8, !tbaa !26
  call void @llvm.lifetime.start.p0(i64 8, ptr %3) #10
  call void @llvm.lifetime.start.p0(i64 8, ptr %4) #10
  call void @llvm.lifetime.start.p0(i64 8, ptr %5) #10
  call void @llvm.lifetime.start.p0(i64 8, ptr %6) #10
  call void @llvm.lifetime.start.p0(i64 4, ptr %7) #10
  call void @llvm.lifetime.start.p0(i64 4, ptr %8) #10
  call void @llvm.lifetime.start.p0(i64 4, ptr %9) #10
  store i32 0, ptr %8, align 4, !tbaa !8
  store i32 0, ptr %9, align 4, !tbaa !8
  br label %11

11:                                               ; preds = %45, %1
  %12 = load i32, ptr %9, align 4, !tbaa !8
  %13 = load ptr, ptr %2, align 8, !tbaa !26
  %14 = getelementptr inbounds nuw %struct.Abc_Ntk_t_, ptr %13, i32 0, i32 5
  %15 = load ptr, ptr %14, align 8, !tbaa !30
  %16 = call i32 @Vec_PtrSize(ptr noundef %15)
  %17 = icmp slt i32 %12, %16
  br i1 %17, label %18, label %22

18:                                               ; preds = %11
  %19 = load ptr, ptr %2, align 8, !tbaa !26
  %20 = load i32, ptr %9, align 4, !tbaa !8
  %21 = call ptr @Abc_NtkObj(ptr noundef %19, i32 noundef %20)
  store ptr %21, ptr %6, align 8, !tbaa !43
  br label %22

22:                                               ; preds = %18, %11
  %23 = phi i1 [ false, %11 ], [ true, %18 ]
  br i1 %23, label %24, label %48

24:                                               ; preds = %22
  %25 = load ptr, ptr %6, align 8, !tbaa !43
  %26 = icmp eq ptr %25, null
  br i1 %26, label %31, label %27

27:                                               ; preds = %24
  %28 = load ptr, ptr %6, align 8, !tbaa !43
  %29 = call i32 @Abc_ObjIsNode(ptr noundef %28)
  %30 = icmp ne i32 %29, 0
  br i1 %30, label %32, label %31

31:                                               ; preds = %27, %24
  br label %44

32:                                               ; preds = %27
  %33 = load ptr, ptr %6, align 8, !tbaa !43
  %34 = call i32 @Abc_ObjIsBarBuf(ptr noundef %33)
  %35 = icmp ne i32 %34, 0
  br i1 %35, label %43, label %36

36:                                               ; preds = %32
  %37 = load ptr, ptr %6, align 8, !tbaa !43
  %38 = getelementptr inbounds nuw %struct.Abc_Obj_t_, ptr %37, i32 0, i32 6
  %39 = load ptr, ptr %38, align 8, !tbaa !12
  %40 = call i32 @Abc_SopIsComplement(ptr noundef %39)
  %41 = icmp ne i32 %40, 0
  br i1 %41, label %42, label %43

42:                                               ; preds = %36
  store i32 1, ptr %8, align 4, !tbaa !8
  br label %48

43:                                               ; preds = %36, %32
  br label %44

44:                                               ; preds = %43, %31
  br label %45

45:                                               ; preds = %44
  %46 = load i32, ptr %9, align 4, !tbaa !8
  %47 = add nsw i32 %46, 1
  store i32 %47, ptr %9, align 4, !tbaa !8
  br label %11, !llvm.loop !99

48:                                               ; preds = %42, %22
  %49 = load i32, ptr %8, align 4, !tbaa !8
  %50 = icmp ne i32 %49, 0
  br i1 %50, label %52, label %51

51:                                               ; preds = %48
  store i32 1, ptr %10, align 4
  br label %123

52:                                               ; preds = %48
  %53 = load ptr, ptr %2, align 8, !tbaa !26
  %54 = call i32 @Abc_NtkGetFaninMax(ptr noundef %53)
  store i32 %54, ptr %7, align 4, !tbaa !8
  %55 = load i32, ptr %7, align 4, !tbaa !8
  %56 = icmp eq i32 %55, 0
  br i1 %56, label %57, label %59

57:                                               ; preds = %52
  %58 = call i32 (ptr, ...) @printf(ptr noundef @.str)
  br label %59

59:                                               ; preds = %57, %52
  %60 = load i32, ptr %7, align 4, !tbaa !8
  %61 = call ptr @Cudd_Init(i32 noundef %60, i32 noundef 0, i32 noundef 256, i32 noundef 262144, i64 noundef 0)
  store ptr %61, ptr %3, align 8, !tbaa !15
  %62 = call ptr @Vec_StrAlloc(i32 noundef 100)
  store ptr %62, ptr %5, align 8, !tbaa !78
  store i32 0, ptr %9, align 4, !tbaa !8
  br label %63

63:                                               ; preds = %117, %59
  %64 = load i32, ptr %9, align 4, !tbaa !8
  %65 = load ptr, ptr %2, align 8, !tbaa !26
  %66 = getelementptr inbounds nuw %struct.Abc_Ntk_t_, ptr %65, i32 0, i32 5
  %67 = load ptr, ptr %66, align 8, !tbaa !30
  %68 = call i32 @Vec_PtrSize(ptr noundef %67)
  %69 = icmp slt i32 %64, %68
  br i1 %69, label %70, label %74

70:                                               ; preds = %63
  %71 = load ptr, ptr %2, align 8, !tbaa !26
  %72 = load i32, ptr %9, align 4, !tbaa !8
  %73 = call ptr @Abc_NtkObj(ptr noundef %71, i32 noundef %72)
  store ptr %73, ptr %6, align 8, !tbaa !43
  br label %74

74:                                               ; preds = %70, %63
  %75 = phi i1 [ false, %63 ], [ true, %70 ]
  br i1 %75, label %76, label %120

76:                                               ; preds = %74
  %77 = load ptr, ptr %6, align 8, !tbaa !43
  %78 = icmp eq ptr %77, null
  br i1 %78, label %83, label %79

79:                                               ; preds = %76
  %80 = load ptr, ptr %6, align 8, !tbaa !43
  %81 = call i32 @Abc_ObjIsNode(ptr noundef %80)
  %82 = icmp ne i32 %81, 0
  br i1 %82, label %84, label %83

83:                                               ; preds = %79, %76
  br label %116

84:                                               ; preds = %79
  %85 = load ptr, ptr %6, align 8, !tbaa !43
  %86 = call i32 @Abc_ObjIsBarBuf(ptr noundef %85)
  %87 = icmp ne i32 %86, 0
  br i1 %87, label %115, label %88

88:                                               ; preds = %84
  %89 = load ptr, ptr %6, align 8, !tbaa !43
  %90 = getelementptr inbounds nuw %struct.Abc_Obj_t_, ptr %89, i32 0, i32 6
  %91 = load ptr, ptr %90, align 8, !tbaa !12
  %92 = call i32 @Abc_SopIsComplement(ptr noundef %91)
  %93 = icmp ne i32 %92, 0
  br i1 %93, label %94, label %115

94:                                               ; preds = %88
  %95 = load ptr, ptr %3, align 8, !tbaa !15
  %96 = load ptr, ptr %6, align 8, !tbaa !43
  %97 = getelementptr inbounds nuw %struct.Abc_Obj_t_, ptr %96, i32 0, i32 6
  %98 = load ptr, ptr %97, align 8, !tbaa !12
  %99 = call ptr @Abc_ConvertSopToBdd(ptr noundef %95, ptr noundef %98, ptr noundef null)
  store ptr %99, ptr %4, align 8, !tbaa !19
  %100 = load ptr, ptr %4, align 8, !tbaa !19
  call void @Cudd_Ref(ptr noundef %100)
  %101 = load ptr, ptr %2, align 8, !tbaa !26
  %102 = getelementptr inbounds nuw %struct.Abc_Ntk_t_, ptr %101, i32 0, i32 30
  %103 = load ptr, ptr %102, align 8, !tbaa !62
  %104 = load ptr, ptr %3, align 8, !tbaa !15
  %105 = load ptr, ptr %4, align 8, !tbaa !19
  %106 = load ptr, ptr %4, align 8, !tbaa !19
  %107 = load ptr, ptr %6, align 8, !tbaa !43
  %108 = call i32 @Abc_ObjFaninNum(ptr noundef %107)
  %109 = load ptr, ptr %5, align 8, !tbaa !78
  %110 = call ptr @Abc_ConvertBddToSop(ptr noundef %103, ptr noundef %104, ptr noundef %105, ptr noundef %106, i32 noundef %108, i32 noundef 0, ptr noundef %109, i32 noundef 1)
  %111 = load ptr, ptr %6, align 8, !tbaa !43
  %112 = getelementptr inbounds nuw %struct.Abc_Obj_t_, ptr %111, i32 0, i32 6
  store ptr %110, ptr %112, align 8, !tbaa !12
  %113 = load ptr, ptr %3, align 8, !tbaa !15
  %114 = load ptr, ptr %4, align 8, !tbaa !19
  call void @Cudd_RecursiveDeref(ptr noundef %113, ptr noundef %114)
  br label %115

115:                                              ; preds = %94, %88, %84
  br label %116

116:                                              ; preds = %115, %83
  br label %117

117:                                              ; preds = %116
  %118 = load i32, ptr %9, align 4, !tbaa !8
  %119 = add nsw i32 %118, 1
  store i32 %119, ptr %9, align 4, !tbaa !8
  br label %63, !llvm.loop !100

120:                                              ; preds = %74
  %121 = load ptr, ptr %5, align 8, !tbaa !78
  call void @Vec_StrFree(ptr noundef %121)
  %122 = load ptr, ptr %3, align 8, !tbaa !15
  call void @Extra_StopManager(ptr noundef %122)
  store i32 0, ptr %10, align 4
  br label %123

123:                                              ; preds = %120, %51
  call void @llvm.lifetime.end.p0(i64 4, ptr %9) #10
  call void @llvm.lifetime.end.p0(i64 4, ptr %8) #10
  call void @llvm.lifetime.end.p0(i64 4, ptr %7) #10
  call void @llvm.lifetime.end.p0(i64 8, ptr %6) #10
  call void @llvm.lifetime.end.p0(i64 8, ptr %5) #10
  call void @llvm.lifetime.end.p0(i64 8, ptr %4) #10
  call void @llvm.lifetime.end.p0(i64 8, ptr %3) #10
  %124 = load i32, ptr %10, align 4
  switch i32 %124, label %126 [
    i32 0, label %125
    i32 1, label %125
  ]

125:                                              ; preds = %123, %123
  ret void

126:                                              ; preds = %123
  unreachable
}