; Function Attrs: nounwind uwtable
define void @Abc_NtkLogicMakeDirectSops(ptr noundef %0) local_unnamed_addr #2 {
  %2 = getelementptr inbounds nuw i8, ptr %0, i64 32
  %3 = load ptr, ptr %2, align 8, !tbaa !18
  %4 = getelementptr i8, ptr %3, i64 4
  %.val4870 = load i32, ptr %4, align 4, !tbaa !35
  %.not4371 = icmp sgt i32 %.val4870, 0
  br i1 %.not4371, label %.lr.ph, label %.critedge47

.lr.ph:                                           ; preds = %1, %24
  %5 = phi ptr [ %25, %24 ], [ %3, %1 ]
  %indvars.iv = phi i64 [ %indvars.iv.next, %24 ], [ 0, %1 ]
  %6 = getelementptr i8, ptr %5, i64 8
  %.val50.val = load ptr, ptr %6, align 8, !tbaa !37
  %7 = getelementptr inbounds nuw ptr, ptr %.val50.val, i64 %indvars.iv
  %8 = load ptr, ptr %7, align 8, !tbaa !38
  %9 = icmp eq ptr %8, null
  br i1 %9, label %24, label %10

10:                                               ; preds = %.lr.ph
  %11 = getelementptr i8, ptr %8, i64 20
  %.val52 = load i32, ptr %11, align 4
  %12 = and i32 %.val52, 15
  %.not = icmp eq i32 %12, 7
  br i1 %.not, label %13, label %24

13:                                               ; preds = %10
  %14 = load ptr, ptr %8, align 8, !tbaa !43
  %15 = getelementptr i8, ptr %14, i64 4
  %.val5.i = load i32, ptr %15, align 4, !tbaa !46
  %.not.i.not = icmp eq i32 %.val5.i, 4
  br i1 %.not.i.not, label %16, label %Abc_ObjIsBarBuf.exit.thread

16:                                               ; preds = %13
  %17 = getelementptr i8, ptr %8, i64 28
  %.val6.i = load i32, ptr %17, align 4, !tbaa !40
  %18 = icmp eq i32 %.val6.i, 1
  br i1 %18, label %Abc_ObjIsBarBuf.exit, label %Abc_ObjIsBarBuf.exit.thread

Abc_ObjIsBarBuf.exit:                             ; preds = %16
  %19 = getelementptr inbounds nuw i8, ptr %8, i64 56
  %20 = load ptr, ptr %19, align 8, !tbaa !3
  %.not66 = icmp eq ptr %20, null
  br i1 %.not66, label %24, label %Abc_ObjIsBarBuf.exit.thread

Abc_ObjIsBarBuf.exit.thread:                      ; preds = %13, %16, %Abc_ObjIsBarBuf.exit
  %21 = getelementptr inbounds nuw i8, ptr %8, i64 56
  %22 = load ptr, ptr %21, align 8, !tbaa !3
  %23 = tail call i32 @Abc_SopIsComplement(ptr noundef %22) #17
  %.not41 = icmp eq i32 %23, 0
  br i1 %.not41, label %Abc_ObjIsBarBuf.exit.thread._crit_edge, label %.critedge

Abc_ObjIsBarBuf.exit.thread._crit_edge:           ; preds = %Abc_ObjIsBarBuf.exit.thread
  %.pre80 = load ptr, ptr %2, align 8, !tbaa !18
  br label %24

24:                                               ; preds = %Abc_ObjIsBarBuf.exit.thread._crit_edge, %10, %.lr.ph, %Abc_ObjIsBarBuf.exit
  %25 = phi ptr [ %.pre80, %Abc_ObjIsBarBuf.exit.thread._crit_edge ], [ %5, %10 ], [ %5, %.lr.ph ], [ %5, %Abc_ObjIsBarBuf.exit ]
  %indvars.iv.next = add nuw nsw i64 %indvars.iv, 1
  %26 = getelementptr i8, ptr %25, i64 4
  %.val48 = load i32, ptr %26, align 4, !tbaa !35
  %27 = sext i32 %.val48 to i64
  %.not43 = icmp slt i64 %indvars.iv.next, %27
  br i1 %.not43, label %.lr.ph, label %.critedge47, !llvm.loop !83

.critedge:                                        ; preds = %Abc_ObjIsBarBuf.exit.thread
  %28 = tail call i32 @Abc_NtkGetFaninMax(ptr noundef nonnull %0) #17
  %29 = icmp eq i32 %28, 0
  br i1 %29, label %30, label %31

30:                                               ; preds = %.critedge
  %puts = tail call i32 @puts(ptr nonnull dereferenceable(1) @str.4)
  br label %31

31:                                               ; preds = %30, %.critedge
  %32 = tail call ptr @Cudd_Init(i32 noundef %28, i32 noundef 0, i32 noundef 256, i32 noundef 262144, i64 noundef 0) #17
  %33 = tail call noalias dereferenceable_or_null(16) ptr @malloc(i64 noundef 16) #18
  %34 = getelementptr inbounds nuw i8, ptr %33, i64 4
  store i32 0, ptr %34, align 4, !tbaa !70
  store i32 100, ptr %33, align 8, !tbaa !67
  %35 = tail call noalias dereferenceable_or_null(100) ptr @malloc(i64 noundef 100) #18
  %36 = getelementptr inbounds nuw i8, ptr %33, i64 8
  store ptr %35, ptr %36, align 8, !tbaa !69
  %37 = load ptr, ptr %2, align 8, !tbaa !18
  %38 = getelementptr i8, ptr %37, i64 4
  %.val73 = load i32, ptr %38, align 4, !tbaa !35
  %39 = icmp sgt i32 %.val73, 0
  br i1 %39, label %.lr.ph75, label %.critedge2

.lr.ph75:                                         ; preds = %31
  %40 = getelementptr inbounds nuw i8, ptr %0, i64 256
  br label %41

41:                                               ; preds = %.lr.ph75, %67
  %indvars.iv77 = phi i64 [ 0, %.lr.ph75 ], [ %indvars.iv.next78, %67 ]
  %42 = phi ptr [ %37, %.lr.ph75 ], [ %68, %67 ]
  %43 = getelementptr i8, ptr %42, i64 8
  %.val49.val = load ptr, ptr %43, align 8, !tbaa !37
  %44 = getelementptr inbounds nuw ptr, ptr %.val49.val, i64 %indvars.iv77
  %45 = load ptr, ptr %44, align 8, !tbaa !38
  %46 = icmp eq ptr %45, null
  br i1 %46, label %67, label %47

47:                                               ; preds = %41
  %48 = getelementptr i8, ptr %45, i64 20
  %.val51 = load i32, ptr %48, align 4
  %49 = and i32 %.val51, 15
  %.not67 = icmp eq i32 %49, 7
  br i1 %.not67, label %50, label %67

50:                                               ; preds = %47
  %51 = load ptr, ptr %45, align 8, !tbaa !43
  %52 = getelementptr i8, ptr %51, i64 4
  %.val5.i54 = load i32, ptr %52, align 4, !tbaa !46
  %.not.i55.not = icmp eq i32 %.val5.i54, 4
  br i1 %.not.i55.not, label %53, label %Abc_ObjIsBarBuf.exit59.thread

53:                                               ; preds = %50
  %54 = getelementptr i8, ptr %45, i64 28
  %.val6.i58 = load i32, ptr %54, align 4, !tbaa !40
  %55 = icmp eq i32 %.val6.i58, 1
  br i1 %55, label %Abc_ObjIsBarBuf.exit59, label %Abc_ObjIsBarBuf.exit59.thread

Abc_ObjIsBarBuf.exit59:                           ; preds = %53
  %56 = getelementptr inbounds nuw i8, ptr %45, i64 56
  %57 = load ptr, ptr %56, align 8, !tbaa !3
  %.not68 = icmp eq ptr %57, null
  br i1 %.not68, label %67, label %Abc_ObjIsBarBuf.exit59.thread

Abc_ObjIsBarBuf.exit59.thread:                    ; preds = %50, %53, %Abc_ObjIsBarBuf.exit59
  %58 = getelementptr inbounds nuw i8, ptr %45, i64 56
  %59 = load ptr, ptr %58, align 8, !tbaa !3
  %60 = tail call i32 @Abc_SopIsComplement(ptr noundef %59) #17
  %.not46 = icmp eq i32 %60, 0
  br i1 %.not46, label %67, label %61

61:                                               ; preds = %Abc_ObjIsBarBuf.exit59.thread
  %62 = load ptr, ptr %58, align 8, !tbaa !3
  %63 = tail call ptr @Abc_ConvertSopToBdd(ptr noundef %32, ptr noundef %62, ptr noundef null)
  tail call void @Cudd_Ref(ptr noundef %63) #17
  %64 = load ptr, ptr %40, align 8, !tbaa !65
  %65 = getelementptr i8, ptr %45, i64 28
  %.val53 = load i32, ptr %65, align 4, !tbaa !47
  %66 = tail call ptr @Abc_ConvertBddToSop(ptr noundef %64, ptr noundef %32, ptr noundef %63, ptr noundef %63, i32 noundef %.val53, i32 noundef 0, ptr noundef nonnull %33, i32 noundef 1)
  store ptr %66, ptr %58, align 8, !tbaa !3
  tail call void @Cudd_RecursiveDeref(ptr noundef %32, ptr noundef %63) #17
  br label %67

67:                                               ; preds = %47, %41, %61, %Abc_ObjIsBarBuf.exit59.thread, %Abc_ObjIsBarBuf.exit59
  %indvars.iv.next78 = add nuw nsw i64 %indvars.iv77, 1
  %68 = load ptr, ptr %2, align 8, !tbaa !18
  %69 = getelementptr i8, ptr %68, i64 4
  %.val = load i32, ptr %69, align 4, !tbaa !35
  %70 = sext i32 %.val to i64
  %71 = icmp slt i64 %indvars.iv.next78, %70
  br i1 %71, label %41, label %.critedge2.loopexit, !llvm.loop !84

.critedge2.loopexit:                              ; preds = %67
  %.pre = load ptr, ptr %36, align 8, !tbaa !69
  br label %.critedge2

.critedge2:                                       ; preds = %.critedge2.loopexit, %31
  %72 = phi ptr [ %.pre, %.critedge2.loopexit ], [ %35, %31 ]
  %.not.i60 = icmp eq ptr %72, null
  br i1 %.not.i60, label %Vec_StrFree.exit, label %73

73:                                               ; preds = %.critedge2
  tail call void @free(ptr noundef nonnull %72) #17
  br label %Vec_StrFree.exit

Vec_StrFree.exit:                                 ; preds = %.critedge2, %73
  tail call void @free(ptr noundef nonnull %33) #17
  tail call void @Extra_StopManager(ptr noundef %32) #17
  br label %.critedge47

.critedge47:                                      ; preds = %24, %1, %Vec_StrFree.exit
  ret void
}